target datalayout = "e-m:e-p270:32:32-p271:32:32-p272:64:64-i64:64-i128:128-f80:128-n8:16:32:64-S128"
target triple = "x86_64-pc-linux-gnu"

%class.FilterListModel = type { %class.QAbstractListModel, i32, %class.QList }
%class.QAbstractListModel = type { %class.QAbstractItemModel }
%class.QAbstractItemModel = type { %class.QObject }
%class.QObject = type { ptr, %class.QScopedPointer }
%class.QScopedPointer = type { ptr }
%class.QList = type { %struct.QArrayDataPointer }
%struct.QArrayDataPointer = type { ptr, ptr, i64 }
%class.QModelIndex = type { i32, i32, i64, ptr }

; Function Attrs: inlinehint mustprogress nounwind null_pointer_is_valid sspstrong uwtable
define linkonce_odr void @_ZN11QModelIndexC2Ev(ptr noundef align 8 dereferenceable_or_null(24) %0) unnamed_addr #3 comdat align 2 {
  %2 = alloca ptr, align 8
  store ptr %0, ptr %2, align 8
  %3 = load ptr, ptr %2, align 8
  %4 = getelementptr inbounds nuw %class.QModelIndex, ptr %3, i32 0, i32 0
  store i32 -1, ptr %4, align 8
  %5 = getelementptr inbounds nuw %class.QModelIndex, ptr %3, i32 0, i32 1
  store i32 -1, ptr %5, align 4
  %6 = getelementptr inbounds nuw %class.QModelIndex, ptr %3, i32 0, i32 2
  store i64 0, ptr %6, align 8
  %7 = getelementptr inbounds nuw %class.QModelIndex, ptr %3, i32 0, i32 3
  store ptr null, ptr %7, align 8
  ret void
}

; Function Attrs: inlinehint mustprogress nounwind null_pointer_is_valid sspstrong uwtable
define linkonce_odr noundef i32 @_ZNK11QModelIndex3rowEv(ptr noundef align 8 dereferenceable_or_null(24) %0) #3 comdat align 2 {
  %2 = alloca ptr, align 8
  store ptr %0, ptr %2, align 8
  %3 = load ptr, ptr %2, align 8
  %4 = getelementptr inbounds nuw %class.QModelIndex, ptr %3, i32 0, i32 0
  %5 = load i32, ptr %4, align 8
  ret i32 %5
}

; Function Attrs: inlinehint mustprogress nounwind null_pointer_is_valid sspstrong uwtable
define linkonce_odr noundef zeroext i1 @_ZNK11QModelIndex7isValidEv(ptr noundef align 8 dereferenceable_or_null(24) %0) #3 comdat align 2 {
  %2 = alloca ptr, align 8
  store ptr %0, ptr %2, align 8
  %3 = load ptr, ptr %2, align 8
  %4 = getelementptr inbounds nuw %class.QModelIndex, ptr %3, i32 0, i32 0
  %5 = load i32, ptr %4, align 8
  %6 = icmp sge i32 %5, 0
  br i1 %6, label %7, label %15

7:                                                ; preds = %1
  %8 = getelementptr inbounds nuw %class.QModelIndex, ptr %3, i32 0, i32 1
  %9 = load i32, ptr %8, align 4
  %10 = icmp sge i32 %9, 0
  br i1 %10, label %11, label %15

11:                                               ; preds = %7
  %12 = getelementptr inbounds nuw %class.QModelIndex, ptr %3, i32 0, i32 3
  %13 = load ptr, ptr %12, align 8
  %14 = icmp ne ptr %13, null
  br label %15

15:                                               ; preds = %11, %7, %1
  %16 = phi i1 [ false, %7 ], [ false, %1 ], [ %14, %11 ]
  ret i1 %16
}

; Function Attrs: mustprogress null_pointer_is_valid sspstrong uwtable
define void @_ZN15FilterListModel12removeFilterE11QModelIndex(ptr noundef align 8 dereferenceable_or_null(48) %0, ptr noundef byval(%class.QModelIndex) align 8 %1) #0 align 2 {
  %3 = alloca ptr, align 8
  %4 = alloca %class.QModelIndex, align 8
  %5 = alloca %class.QModelIndex, align 8
  store ptr %0, ptr %3, align 8
  %6 = load ptr, ptr %3, align 8
  %7 = call noundef zeroext i1 @_ZNK11QModelIndex7isValidEv(ptr noundef align 8 dereferenceable_or_null(24) %1) #21
  call void @llvm.lifetime.start.p0(i64 24, ptr %4) #21
  br i1 %7, label %8, label %15

8:                                                ; preds = %2
  %9 = call noundef i32 @_ZNK11QModelIndex3rowEv(ptr noundef align 8 dereferenceable_or_null(24) %1) #21
  call void @_ZN11QModelIndexC2Ev(ptr noundef align 8 dereferenceable_or_null(24) %4) #21
  %10 = load ptr, ptr %6, align 8
  %11 = getelementptr inbounds ptr, ptr %10, i64 15
  %12 = load ptr, ptr %11, align 8
  %13 = call noundef i32 %12(ptr noundef align 8 dereferenceable_or_null(48) %6, ptr noundef align 8 dereferenceable(24) %4)
  %14 = icmp sge i32 %9, %13
  br label %15

15:                                               ; preds = %8, %2
  %16 = phi i1 [ true, %2 ], [ %14, %8 ]
  call void @llvm.lifetime.end.p0(i64 24, ptr %4) #21
  br i1 %16, label %17, label %18

17:                                               ; preds = %15
  br label %24

18:                                               ; preds = %15
  call void @llvm.lifetime.start.p0(i64 24, ptr %5) #21
  call void @_ZN11QModelIndexC2Ev(ptr noundef align 8 dereferenceable_or_null(24) %5) #21
  %19 = call noundef i32 @_ZNK11QModelIndex3rowEv(ptr noundef align 8 dereferenceable_or_null(24) %1) #21
  %20 = call noundef i32 @_ZNK11QModelIndex3rowEv(ptr noundef align 8 dereferenceable_or_null(24) %1) #21
  call void @_ZN18QAbstractItemModel15beginRemoveRowsERK11QModelIndexii(ptr noundef align 8 dereferenceable_or_null(16) %6, ptr noundef align 8 dereferenceable(24) %5, i32 noundef %19, i32 noundef %20)
  call void @llvm.lifetime.end.p0(i64 24, ptr %5) #21
  %21 = getelementptr inbounds nuw %class.FilterListModel, ptr %6, i32 0, i32 2
  %22 = call noundef i32 @_ZNK11QModelIndex3rowEv(ptr noundef align 8 dereferenceable_or_null(24) %1) #21
  %23 = sext i32 %22 to i64
  call void @_ZN5QListI7QStringE8removeAtEx(ptr noundef align 8 dereferenceable_or_null(24) %21, i64 noundef %23)
  call void @_ZN18QAbstractItemModel13endRemoveRowsEv(ptr noundef align 8 dereferenceable_or_null(16) %6)
  br label %24

24:                                               ; preds = %18, %17
  ret void
}