; Function Attrs: mustprogress null_pointer_is_valid sspstrong uwtable
define void @_ZN15FilterListModel12removeFilterE11QModelIndex(ptr noundef align 8 dereferenceable_or_null(48) %0, ptr noundef readonly byval(%class.QModelIndex) align 8 captures(none) %1) local_unnamed_addr #0 align 2 {
  %3 = alloca %class.QModelIndex, align 8
  %4 = alloca %class.QModelIndex, align 8
  %5 = load i32, ptr %1, align 8
  %6 = icmp sgt i32 %5, -1
  %7 = getelementptr inbounds nuw i8, ptr %1, i64 4
  %8 = load i32, ptr %7, align 4
  %9 = icmp sgt i32 %8, -1
  %or.cond = select i1 %6, i1 %9, i1 false
  br i1 %or.cond, label %_ZNK11QModelIndex7isValidEv.exit, label %_ZNK11QModelIndex7isValidEv.exit.thread

_ZNK11QModelIndex7isValidEv.exit.thread:          ; preds = %2
  call void @llvm.lifetime.start.p0(i64 24, ptr nonnull %3) #21
  br label %.critedge

_ZNK11QModelIndex7isValidEv.exit:                 ; preds = %2
  %10 = getelementptr inbounds nuw i8, ptr %1, i64 16
  %11 = load ptr, ptr %10, align 8
  %.not3 = icmp eq ptr %11, null
  call void @llvm.lifetime.start.p0(i64 24, ptr nonnull %3) #21
  br i1 %.not3, label %.critedge, label %12

12:                                               ; preds = %_ZNK11QModelIndex7isValidEv.exit
  store i32 -1, ptr %3, align 8
  %13 = getelementptr inbounds nuw i8, ptr %3, i64 4
  store i32 -1, ptr %13, align 4
  %14 = getelementptr inbounds nuw i8, ptr %3, i64 8
  call void @llvm.memset.p0.i64(ptr noundef nonnull align 8 dereferenceable(16) %14, i8 0, i64 16, i1 false)
  %15 = load ptr, ptr %0, align 8
  %16 = getelementptr inbounds nuw i8, ptr %15, i64 120
  %17 = load ptr, ptr %16, align 8
  %18 = call noundef i32 %17(ptr noundef align 8 dereferenceable_or_null(48) %0, ptr noundef nonnull align 8 dereferenceable(24) %3)
  %.not = icmp slt i32 %5, %18
  call void @llvm.lifetime.end.p0(i64 24, ptr nonnull %3) #21
  br i1 %.not, label %19, label %24

.critedge:                                        ; preds = %_ZNK11QModelIndex7isValidEv.exit.thread, %_ZNK11QModelIndex7isValidEv.exit
  call void @llvm.lifetime.end.p0(i64 24, ptr nonnull %3) #21
  br label %24

19:                                               ; preds = %12
  call void @llvm.lifetime.start.p0(i64 24, ptr nonnull %4) #21
  store i32 -1, ptr %4, align 8
  %20 = getelementptr inbounds nuw i8, ptr %4, i64 4
  store i32 -1, ptr %20, align 4
  %21 = getelementptr inbounds nuw i8, ptr %4, i64 8
  call void @llvm.memset.p0.i64(ptr noundef nonnull align 8 dereferenceable(16) %21, i8 0, i64 16, i1 false)
  call void @_ZN18QAbstractItemModel15beginRemoveRowsERK11QModelIndexii(ptr noundef align 8 dereferenceable_or_null(16) %0, ptr noundef nonnull align 8 dereferenceable(24) %4, i32 noundef %5, i32 noundef %5)
  call void @llvm.lifetime.end.p0(i64 24, ptr nonnull %4) #21
  %22 = getelementptr inbounds nuw i8, ptr %0, i64 24
  %23 = zext nneg i32 %5 to i64
  call void @_ZN5QListI7QStringE8removeAtEx(ptr noundef nonnull align 8 dereferenceable_or_null(24) %22, i64 noundef %23)
  call void @_ZN18QAbstractItemModel13endRemoveRowsEv(ptr noundef align 8 dereferenceable_or_null(16) %0)
  br label %24

24:                                               ; preds = %12, %.critedge, %19
  ret void
}